target datalayout = "e-m:e-p270:32:32-p271:32:32-p272:64:64-i64:64-i128:128-f80:128-n8:16:32:64-S128"
target triple = "x86_64-pc-linux-gnu"

%"class.pxrInternal_v0_24__pxrReserved__::TfToken" = type { %"class.pxrInternal_v0_24__pxrReserved__::TfPointerAndBits" }
%"class.pxrInternal_v0_24__pxrReserved__::TfPointerAndBits" = type { ptr }
%"class.std::__cxx11::basic_string" = type { %"struct.std::__cxx11::basic_string<char>::_Alloc_hider", i64, %union.anon }
%"struct.std::__cxx11::basic_string<char>::_Alloc_hider" = type { ptr }
%union.anon = type { i64, [8 x i8] }
%"class.std::unordered_map" = type { %"class.std::_Hashtable" }
%"class.std::_Hashtable" = type { ptr, i64, %"struct.std::__detail::_Hash_node_base", i64, %"struct.std::__detail::_Prime_rehash_policy", ptr }
%"struct.std::__detail::_Hash_node_base" = type { ptr }
%"struct.std::__detail::_Prime_rehash_policy" = type { float, i64 }
%"struct.std::__detail::_Node_const_iterator" = type { %"struct.std::__detail::_Node_iterator_base" }
%"struct.std::__detail::_Node_iterator_base" = type { ptr }
%"struct.std::pair.17" = type { %"class.pxrInternal_v0_24__pxrReserved__::TfToken", %"class.std::__cxx11::basic_string" }
%"struct.std::__detail::_Hash_node_value_base" = type { %"struct.__gnu_cxx::__aligned_buffer" }
%"struct.__gnu_cxx::__aligned_buffer" = type { %"union.std::aligned_storage<40, 8>::type" }
%"union.std::aligned_storage<40, 8>::type" = type { [40 x i8] }

; Function Attrs: mustprogress nounwind uwtable
define linkonce_odr noundef ptr @_ZN9__gnu_cxx16__aligned_bufferISt4pairIKN32pxrInternal_v0_24__pxrReserved__7TfTokenENSt7__cxx1112basic_stringIcSt11char_traitsIcESaIcEEEEE7_M_addrEv(ptr noundef nonnull align 8 dereferenceable(40) %0) #0 comdat align 2 {
  %2 = alloca ptr, align 8
  store ptr %0, ptr %2, align 8
  %3 = load ptr, ptr %2, align 8
  %4 = getelementptr inbounds nuw %"struct.__gnu_cxx::__aligned_buffer", ptr %3, i32 0, i32 0
  ret ptr %4
}

; Function Attrs: mustprogress nounwind uwtable
define linkonce_odr noundef ptr @_ZN9__gnu_cxx16__aligned_bufferISt4pairIKN32pxrInternal_v0_24__pxrReserved__7TfTokenENSt7__cxx1112basic_stringIcSt11char_traitsIcESaIcEEEEE6_M_ptrEv(ptr noundef nonnull align 8 dereferenceable(40) %0) #0 comdat align 2 {
  %2 = alloca ptr, align 8
  store ptr %0, ptr %2, align 8
  %3 = load ptr, ptr %2, align 8
  %4 = call noundef ptr @_ZN9__gnu_cxx16__aligned_bufferISt4pairIKN32pxrInternal_v0_24__pxrReserved__7TfTokenENSt7__cxx1112basic_stringIcSt11char_traitsIcESaIcEEEEE7_M_addrEv(ptr noundef nonnull align 8 dereferenceable(40) %3) #12
  ret ptr %4
}

; Function Attrs: mustprogress nounwind uwtable
define linkonce_odr void @_ZNSt8__detail19_Node_iterator_baseISt4pairIKN32pxrInternal_v0_24__pxrReserved__7TfTokenENSt7__cxx1112basic_stringIcSt11char_traitsIcESaIcEEEELb1EEC2EPNS_10_Hash_nodeISB_Lb1EEE(ptr noundef nonnull align 8 dereferenceable(8) %0, ptr noundef %1) unnamed_addr #0 comdat align 2 {
  %3 = alloca ptr, align 8
  %4 = alloca ptr, align 8
  store ptr %0, ptr %3, align 8
  store ptr %1, ptr %4, align 8
  %5 = load ptr, ptr %3, align 8
  %6 = getelementptr inbounds nuw %"struct.std::__detail::_Node_iterator_base", ptr %5, i32 0, i32 0
  %7 = load ptr, ptr %4, align 8
  store ptr %7, ptr %6, align 8
  ret void
}

; Function Attrs: mustprogress nounwind uwtable
define linkonce_odr noundef ptr @_ZNKSt8__detail10_Hash_nodeISt4pairIKN32pxrInternal_v0_24__pxrReserved__7TfTokenENSt7__cxx1112basic_stringIcSt11char_traitsIcESaIcEEEELb1EE7_M_nextEv(ptr noundef nonnull align 8 dereferenceable(56) %0) #0 comdat align 2 {
  %2 = alloca ptr, align 8
  store ptr %0, ptr %2, align 8
  %3 = load ptr, ptr %2, align 8
  %4 = getelementptr inbounds nuw %"struct.std::__detail::_Hash_node_base", ptr %3, i32 0, i32 0
  %5 = load ptr, ptr %4, align 8
  ret ptr %5
}

; Function Attrs: mustprogress nounwind uwtable
define linkonce_odr noundef ptr @_ZNSt8__detail21_Hash_node_value_baseISt4pairIKN32pxrInternal_v0_24__pxrReserved__7TfTokenENSt7__cxx1112basic_stringIcSt11char_traitsIcESaIcEEEEE9_M_valptrEv(ptr noundef nonnull align 8 dereferenceable(40) %0) #0 comdat align 2 {
  %2 = alloca ptr, align 8
  store ptr %0, ptr %2, align 8
  %3 = load ptr, ptr %2, align 8
  %4 = getelementptr inbounds nuw %"struct.std::__detail::_Hash_node_value_base", ptr %3, i32 0, i32 0
  %5 = call noundef ptr @_ZN9__gnu_cxx16__aligned_bufferISt4pairIKN32pxrInternal_v0_24__pxrReserved__7TfTokenENSt7__cxx1112basic_stringIcSt11char_traitsIcESaIcEEEEE6_M_ptrEv(ptr noundef nonnull align 8 dereferenceable(40) %4) #12
  ret ptr %5
}

; Function Attrs: mustprogress nounwind uwtable
define linkonce_odr void @_ZNSt8__detail20_Node_const_iteratorISt4pairIKN32pxrInternal_v0_24__pxrReserved__7TfTokenENSt7__cxx1112basic_stringIcSt11char_traitsIcESaIcEEEELb0ELb1EEC2EPNS_10_Hash_nodeISB_Lb1EEE(ptr noundef nonnull align 8 dereferenceable(8) %0, ptr noundef %1) unnamed_addr #0 comdat align 2 {
  %3 = alloca ptr, align 8
  %4 = alloca ptr, align 8
  store ptr %0, ptr %3, align 8
  store ptr %1, ptr %4, align 8
  %5 = load ptr, ptr %3, align 8
  %6 = load ptr, ptr %4, align 8
  call void @_ZNSt8__detail19_Node_iterator_baseISt4pairIKN32pxrInternal_v0_24__pxrReserved__7TfTokenENSt7__cxx1112basic_stringIcSt11char_traitsIcESaIcEEEELb1EEC2EPNS_10_Hash_nodeISB_Lb1EEE(ptr noundef nonnull align 8 dereferenceable(8) %5, ptr noundef %6) #12
  ret void
}

; Function Attrs: mustprogress nounwind uwtable
define linkonce_odr noundef ptr @_ZNKSt10_HashtableIN32pxrInternal_v0_24__pxrReserved__7TfTokenESt4pairIKS1_NSt7__cxx1112basic_stringIcSt11char_traitsIcESaIcEEEESaISA_ENSt8__detail10_Select1stESt8equal_toIS1_ENS1_11HashFunctorENSC_18_Mod_range_hashingENSC_20_Default_ranged_hashENSC_20_Prime_rehash_policyENSC_17_Hashtable_traitsILb1ELb0ELb1EEEE8_M_beginEv(ptr noundef nonnull align 8 dereferenceable(56) %0) #0 comdat align 2 {
  %2 = alloca ptr, align 8
  store ptr %0, ptr %2, align 8
  %3 = load ptr, ptr %2, align 8
  %4 = getelementptr inbounds nuw %"class.std::_Hashtable", ptr %3, i32 0, i32 2
  %5 = getelementptr inbounds nuw %"struct.std::__detail::_Hash_node_base", ptr %4, i32 0, i32 0
  %6 = load ptr, ptr %5, align 8
  ret ptr %6
}

; Function Attrs: mustprogress nounwind uwtable
define linkonce_odr void @_ZNSt8__detail19_Node_iterator_baseISt4pairIKN32pxrInternal_v0_24__pxrReserved__7TfTokenENSt7__cxx1112basic_stringIcSt11char_traitsIcESaIcEEEELb1EE7_M_incrEv(ptr noundef nonnull align 8 dereferenceable(8) %0) #0 comdat align 2 {
  %2 = alloca ptr, align 8
  store ptr %0, ptr %2, align 8
  %3 = load ptr, ptr %2, align 8
  %4 = getelementptr inbounds nuw %"struct.std::__detail::_Node_iterator_base", ptr %3, i32 0, i32 0
  %5 = load ptr, ptr %4, align 8
  %6 = call noundef ptr @_ZNKSt8__detail10_Hash_nodeISt4pairIKN32pxrInternal_v0_24__pxrReserved__7TfTokenENSt7__cxx1112basic_stringIcSt11char_traitsIcESaIcEEEELb1EE7_M_nextEv(ptr noundef nonnull align 8 dereferenceable(56) %5) #12
  %7 = getelementptr inbounds nuw %"struct.std::__detail::_Node_iterator_base", ptr %3, i32 0, i32 0
  store ptr %6, ptr %7, align 8
  ret void
}

; Function Attrs: mustprogress nounwind uwtable
define linkonce_odr noundef nonnull align 8 dereferenceable(40) ptr @_ZNSt8__detail21_Hash_node_value_baseISt4pairIKN32pxrInternal_v0_24__pxrReserved__7TfTokenENSt7__cxx1112basic_stringIcSt11char_traitsIcESaIcEEEEE4_M_vEv(ptr noundef nonnull align 8 dereferenceable(40) %0) #0 comdat align 2 {
  %2 = alloca ptr, align 8
  store ptr %0, ptr %2, align 8
  %3 = load ptr, ptr %2, align 8
  %4 = call noundef ptr @_ZNSt8__detail21_Hash_node_value_baseISt4pairIKN32pxrInternal_v0_24__pxrReserved__7TfTokenENSt7__cxx1112basic_stringIcSt11char_traitsIcESaIcEEEEE9_M_valptrEv(ptr noundef nonnull align 8 dereferenceable(40) %3) #12
  ret ptr %4
}

; Function Attrs: mustprogress nounwind uwtable
define linkonce_odr ptr @_ZNKSt10_HashtableIN32pxrInternal_v0_24__pxrReserved__7TfTokenESt4pairIKS1_NSt7__cxx1112basic_stringIcSt11char_traitsIcESaIcEEEESaISA_ENSt8__detail10_Select1stESt8equal_toIS1_ENS1_11HashFunctorENSC_18_Mod_range_hashingENSC_20_Default_ranged_hashENSC_20_Prime_rehash_policyENSC_17_Hashtable_traitsILb1ELb0ELb1EEEE3endEv(ptr noundef nonnull align 8 dereferenceable(56) %0) #0 comdat align 2 {
  %2 = alloca %"struct.std::__detail::_Node_const_iterator", align 8
  %3 = alloca ptr, align 8
  store ptr %0, ptr %3, align 8
  call void @_ZNSt8__detail20_Node_const_iteratorISt4pairIKN32pxrInternal_v0_24__pxrReserved__7TfTokenENSt7__cxx1112basic_stringIcSt11char_traitsIcESaIcEEEELb0ELb1EEC2EPNS_10_Hash_nodeISB_Lb1EEE(ptr noundef nonnull align 8 dereferenceable(8) %2, ptr noundef null) #12
  %4 = getelementptr inbounds nuw %"struct.std::__detail::_Node_const_iterator", ptr %2, i32 0, i32 0
  %5 = getelementptr inbounds nuw %"struct.std::__detail::_Node_iterator_base", ptr %4, i32 0, i32 0
  %6 = load ptr, ptr %5, align 8
  ret ptr %6
}

; Function Attrs: mustprogress nounwind uwtable
define linkonce_odr ptr @_ZNKSt10_HashtableIN32pxrInternal_v0_24__pxrReserved__7TfTokenESt4pairIKS1_NSt7__cxx1112basic_stringIcSt11char_traitsIcESaIcEEEESaISA_ENSt8__detail10_Select1stESt8equal_toIS1_ENS1_11HashFunctorENSC_18_Mod_range_hashingENSC_20_Default_ranged_hashENSC_20_Prime_rehash_policyENSC_17_Hashtable_traitsILb1ELb0ELb1EEEE5beginEv(ptr noundef nonnull align 8 dereferenceable(56) %0) #0 comdat align 2 {
  %2 = alloca %"struct.std::__detail::_Node_const_iterator", align 8
  %3 = alloca ptr, align 8
  store ptr %0, ptr %3, align 8
  %4 = load ptr, ptr %3, align 8
  %5 = call noundef ptr @_ZNKSt10_HashtableIN32pxrInternal_v0_24__pxrReserved__7TfTokenESt4pairIKS1_NSt7__cxx1112basic_stringIcSt11char_traitsIcESaIcEEEESaISA_ENSt8__detail10_Select1stESt8equal_toIS1_ENS1_11HashFunctorENSC_18_Mod_range_hashingENSC_20_Default_ranged_hashENSC_20_Prime_rehash_policyENSC_17_Hashtable_traitsILb1ELb0ELb1EEEE8_M_beginEv(ptr noundef nonnull align 8 dereferenceable(56) %4)
  call void @_ZNSt8__detail20_Node_const_iteratorISt4pairIKN32pxrInternal_v0_24__pxrReserved__7TfTokenENSt7__cxx1112basic_stringIcSt11char_traitsIcESaIcEEEELb0ELb1EEC2EPNS_10_Hash_nodeISB_Lb1EEE(ptr noundef nonnull align 8 dereferenceable(8) %2, ptr noundef %5) #12
  %6 = getelementptr inbounds nuw %"struct.std::__detail::_Node_const_iterator", ptr %2, i32 0, i32 0
  %7 = getelementptr inbounds nuw %"struct.std::__detail::_Node_iterator_base", ptr %6, i32 0, i32 0
  %8 = load ptr, ptr %7, align 8
  ret ptr %8
}

; Function Attrs: mustprogress nounwind uwtable
define linkonce_odr noundef nonnull align 8 dereferenceable(8) ptr @_ZNSt8__detail20_Node_const_iteratorISt4pairIKN32pxrInternal_v0_24__pxrReserved__7TfTokenENSt7__cxx1112basic_stringIcSt11char_traitsIcESaIcEEEELb0ELb1EEppEv(ptr noundef nonnull align 8 dereferenceable(8) %0) #0 comdat align 2 {
  %2 = alloca ptr, align 8
  store ptr %0, ptr %2, align 8
  %3 = load ptr, ptr %2, align 8
  call void @_ZNSt8__detail19_Node_iterator_baseISt4pairIKN32pxrInternal_v0_24__pxrReserved__7TfTokenENSt7__cxx1112basic_stringIcSt11char_traitsIcESaIcEEEELb1EE7_M_incrEv(ptr noundef nonnull align 8 dereferenceable(8) %3) #12
  ret ptr %3
}

; Function Attrs: mustprogress nounwind uwtable
define linkonce_odr noundef nonnull align 8 dereferenceable(40) ptr @_ZNKSt8__detail20_Node_const_iteratorISt4pairIKN32pxrInternal_v0_24__pxrReserved__7TfTokenENSt7__cxx1112basic_stringIcSt11char_traitsIcESaIcEEEELb0ELb1EEdeEv(ptr noundef nonnull align 8 dereferenceable(8) %0) #0 comdat align 2 {
  %2 = alloca ptr, align 8
  store ptr %0, ptr %2, align 8
  %3 = load ptr, ptr %2, align 8
  %4 = getelementptr inbounds nuw %"struct.std::__detail::_Node_iterator_base", ptr %3, i32 0, i32 0
  %5 = load ptr, ptr %4, align 8
  %6 = getelementptr inbounds i8, ptr %5, i64 8
  %7 = call noundef nonnull align 8 dereferenceable(40) ptr @_ZNSt8__detail21_Hash_node_value_baseISt4pairIKN32pxrInternal_v0_24__pxrReserved__7TfTokenENSt7__cxx1112basic_stringIcSt11char_traitsIcESaIcEEEEE4_M_vEv(ptr noundef nonnull align 8 dereferenceable(40) %6) #12
  ret ptr %7
}

; Function Attrs: mustprogress nounwind uwtable
define linkonce_odr noundef zeroext i1 @_ZNSt8__detailneERKNS_19_Node_iterator_baseISt4pairIKN32pxrInternal_v0_24__pxrReserved__7TfTokenENSt7__cxx1112basic_stringIcSt11char_traitsIcESaIcEEEELb1EEESE_(ptr noundef nonnull align 8 dereferenceable(8) %0, ptr noundef nonnull align 8 dereferenceable(8) %1) #0 comdat {
  %3 = alloca ptr, align 8
  %4 = alloca ptr, align 8
  store ptr %0, ptr %3, align 8
  store ptr %1, ptr %4, align 8
  %5 = load ptr, ptr %3, align 8
  %6 = getelementptr inbounds nuw %"struct.std::__detail::_Node_iterator_base", ptr %5, i32 0, i32 0
  %7 = load ptr, ptr %6, align 8
  %8 = load ptr, ptr %4, align 8
  %9 = getelementptr inbounds nuw %"struct.std::__detail::_Node_iterator_base", ptr %8, i32 0, i32 0
  %10 = load ptr, ptr %9, align 8
  %11 = icmp ne ptr %7, %10
  ret i1 %11
}

; Function Attrs: mustprogress nounwind uwtable
define linkonce_odr ptr @_ZNKSt13unordered_mapIN32pxrInternal_v0_24__pxrReserved__7TfTokenENSt7__cxx1112basic_stringIcSt11char_traitsIcESaIcEEENS1_11HashFunctorESt8equal_toIS1_ESaISt4pairIKS1_S7_EEE3endEv(ptr noundef nonnull align 8 dereferenceable(56) %0) #0 comdat align 2 {
  %2 = alloca %"struct.std::__detail::_Node_const_iterator", align 8
  %3 = alloca ptr, align 8
  store ptr %0, ptr %3, align 8
  %4 = load ptr, ptr %3, align 8
  %5 = getelementptr inbounds nuw %"class.std::unordered_map", ptr %4, i32 0, i32 0
  %6 = call ptr @_ZNKSt10_HashtableIN32pxrInternal_v0_24__pxrReserved__7TfTokenESt4pairIKS1_NSt7__cxx1112basic_stringIcSt11char_traitsIcESaIcEEEESaISA_ENSt8__detail10_Select1stESt8equal_toIS1_ENS1_11HashFunctorENSC_18_Mod_range_hashingENSC_20_Default_ranged_hashENSC_20_Prime_rehash_policyENSC_17_Hashtable_traitsILb1ELb0ELb1EEEE3endEv(ptr noundef nonnull align 8 dereferenceable(56) %5) #12
  %7 = getelementptr inbounds nuw %"struct.std::__detail::_Node_const_iterator", ptr %2, i32 0, i32 0
  %8 = getelementptr inbounds nuw %"struct.std::__detail::_Node_iterator_base", ptr %7, i32 0, i32 0
  store ptr %6, ptr %8, align 8
  %9 = getelementptr inbounds nuw %"struct.std::__detail::_Node_const_iterator", ptr %2, i32 0, i32 0
  %10 = getelementptr inbounds nuw %"struct.std::__detail::_Node_iterator_base", ptr %9, i32 0, i32 0
  %11 = load ptr, ptr %10, align 8
  ret ptr %11
}

; Function Attrs: mustprogress nounwind uwtable
define linkonce_odr ptr @_ZNKSt13unordered_mapIN32pxrInternal_v0_24__pxrReserved__7TfTokenENSt7__cxx1112basic_stringIcSt11char_traitsIcESaIcEEENS1_11HashFunctorESt8equal_toIS1_ESaISt4pairIKS1_S7_EEE5beginEv(ptr noundef nonnull align 8 dereferenceable(56) %0) #0 comdat align 2 {
  %2 = alloca %"struct.std::__detail::_Node_const_iterator", align 8
  %3 = alloca ptr, align 8
  store ptr %0, ptr %3, align 8
  %4 = load ptr, ptr %3, align 8
  %5 = getelementptr inbounds nuw %"class.std::unordered_map", ptr %4, i32 0, i32 0
  %6 = call ptr @_ZNKSt10_HashtableIN32pxrInternal_v0_24__pxrReserved__7TfTokenESt4pairIKS1_NSt7__cxx1112basic_stringIcSt11char_traitsIcESaIcEEEESaISA_ENSt8__detail10_Select1stESt8equal_toIS1_ENS1_11HashFunctorENSC_18_Mod_range_hashingENSC_20_Default_ranged_hashENSC_20_Prime_rehash_policyENSC_17_Hashtable_traitsILb1ELb0ELb1EEEE5beginEv(ptr noundef nonnull align 8 dereferenceable(56) %5) #12
  %7 = getelementptr inbounds nuw %"struct.std::__detail::_Node_const_iterator", ptr %2, i32 0, i32 0
  %8 = getelementptr inbounds nuw %"struct.std::__detail::_Node_iterator_base", ptr %7, i32 0, i32 0
  store ptr %6, ptr %8, align 8
  %9 = getelementptr inbounds nuw %"struct.std::__detail::_Node_const_iterator", ptr %2, i32 0, i32 0
  %10 = getelementptr inbounds nuw %"struct.std::__detail::_Node_iterator_base", ptr %9, i32 0, i32 0
  %11 = load ptr, ptr %10, align 8
  ret ptr %11
}

; Function Attrs: mustprogress uwtable
define void @_ZNK32pxrInternal_v0_24__pxrReserved__14UsdShadeOutput14SetSdrMetadataERKSt13unordered_mapINS_7TfTokenENSt7__cxx1112basic_stringIcSt11char_traitsIcESaIcEEENS2_11HashFunctorESt8equal_toIS2_ESaISt4pairIKS2_S8_EEE(ptr noundef nonnull align 8 dereferenceable(32) %0, ptr noundef nonnull align 8 dereferenceable(56) %1) #1 align 2 {
  %3 = alloca ptr, align 8
  %4 = alloca ptr, align 8
  %5 = alloca ptr, align 8
  %6 = alloca %"struct.std::__detail::_Node_const_iterator", align 8
  %7 = alloca %"struct.std::__detail::_Node_const_iterator", align 8
  %8 = alloca ptr, align 8
  store ptr %0, ptr %3, align 8
  store ptr %1, ptr %4, align 8
  %9 = load ptr, ptr %3, align 8
  %10 = load ptr, ptr %4, align 8
  store ptr %10, ptr %5, align 8
  %11 = load ptr, ptr %5, align 8
  %12 = call ptr @_ZNKSt13unordered_mapIN32pxrInternal_v0_24__pxrReserved__7TfTokenENSt7__cxx1112basic_stringIcSt11char_traitsIcESaIcEEENS1_11HashFunctorESt8equal_toIS1_ESaISt4pairIKS1_S7_EEE5beginEv(ptr noundef nonnull align 8 dereferenceable(56) %11) #12
  %13 = getelementptr inbounds nuw %"struct.std::__detail::_Node_const_iterator", ptr %6, i32 0, i32 0
  %14 = getelementptr inbounds nuw %"struct.std::__detail::_Node_iterator_base", ptr %13, i32 0, i32 0
  store ptr %12, ptr %14, align 8
  %15 = load ptr, ptr %5, align 8
  %16 = call ptr @_ZNKSt13unordered_mapIN32pxrInternal_v0_24__pxrReserved__7TfTokenENSt7__cxx1112basic_stringIcSt11char_traitsIcESaIcEEENS1_11HashFunctorESt8equal_toIS1_ESaISt4pairIKS1_S7_EEE3endEv(ptr noundef nonnull align 8 dereferenceable(56) %15) #12
  %17 = getelementptr inbounds nuw %"struct.std::__detail::_Node_const_iterator", ptr %7, i32 0, i32 0
  %18 = getelementptr inbounds nuw %"struct.std::__detail::_Node_iterator_base", ptr %17, i32 0, i32 0
  store ptr %16, ptr %18, align 8
  br label %19

19:                                               ; preds = %27, %2
  %20 = call noundef zeroext i1 @_ZNSt8__detailneERKNS_19_Node_iterator_baseISt4pairIKN32pxrInternal_v0_24__pxrReserved__7TfTokenENSt7__cxx1112basic_stringIcSt11char_traitsIcESaIcEEEELb1EEESE_(ptr noundef nonnull align 8 dereferenceable(8) %6, ptr noundef nonnull align 8 dereferenceable(8) %7) #12
  br i1 %20, label %21, label %29

21:                                               ; preds = %19
  %22 = call noundef nonnull align 8 dereferenceable(40) ptr @_ZNKSt8__detail20_Node_const_iteratorISt4pairIKN32pxrInternal_v0_24__pxrReserved__7TfTokenENSt7__cxx1112basic_stringIcSt11char_traitsIcESaIcEEEELb0ELb1EEdeEv(ptr noundef nonnull align 8 dereferenceable(8) %6) #12
  store ptr %22, ptr %8, align 8
  %23 = load ptr, ptr %8, align 8
  %24 = getelementptr inbounds nuw %"struct.std::pair.17", ptr %23, i32 0, i32 0
  %25 = load ptr, ptr %8, align 8
  %26 = getelementptr inbounds nuw %"struct.std::pair.17", ptr %25, i32 0, i32 1
  call void @_ZNK32pxrInternal_v0_24__pxrReserved__14UsdShadeOutput19SetSdrMetadataByKeyERKNS_7TfTokenERKNSt7__cxx1112basic_stringIcSt11char_traitsIcESaIcEEE(ptr noundef nonnull align 8 dereferenceable(32) %9, ptr noundef nonnull align 8 dereferenceable(8) %24, ptr noundef nonnull align 8 dereferenceable(32) %26)
  br label %27

27:                                               ; preds = %21
  %28 = call noundef nonnull align 8 dereferenceable(8) ptr @_ZNSt8__detail20_Node_const_iteratorISt4pairIKN32pxrInternal_v0_24__pxrReserved__7TfTokenENSt7__cxx1112basic_stringIcSt11char_traitsIcESaIcEEEELb0ELb1EEppEv(ptr noundef nonnull align 8 dereferenceable(8) %6) #12
  br label %19

29:                                               ; preds = %19
  ret void
}