; Function Attrs: mustprogress uwtable
define void @_ZNK32pxrInternal_v0_24__pxrReserved__14UsdShadeOutput14SetSdrMetadataERKSt13unordered_mapINS_7TfTokenENSt7__cxx1112basic_stringIcSt11char_traitsIcESaIcEEENS2_11HashFunctorESt8equal_toIS2_ESaISt4pairIKS2_S8_EEE(ptr noundef nonnull align 8 dereferenceable(32) %0, ptr nocapture noundef nonnull readonly align 8 dereferenceable(56) %1) local_unnamed_addr #1 align 2 {
  %3 = getelementptr inbounds nuw i8, ptr %1, i64 16
  %.sroa.06.09 = load ptr, ptr %3, align 8
  %.not10 = icmp eq ptr %.sroa.06.09, null
  br i1 %.not10, label %._crit_edge, label %.lr.ph

.lr.ph:                                           ; preds = %2, %.lr.ph
  %.sroa.06.011 = phi ptr [ %.sroa.06.0, %.lr.ph ], [ %.sroa.06.09, %2 ]
  %4 = getelementptr inbounds i8, ptr %.sroa.06.011, i64 8
  %5 = getelementptr inbounds i8, ptr %.sroa.06.011, i64 16
  tail call void @_ZNK32pxrInternal_v0_24__pxrReserved__14UsdShadeOutput19SetSdrMetadataByKeyERKNS_7TfTokenERKNSt7__cxx1112basic_stringIcSt11char_traitsIcESaIcEEE(ptr noundef nonnull align 8 dereferenceable(32) %0, ptr noundef nonnull align 8 dereferenceable(8) %4, ptr noundef nonnull align 8 dereferenceable(32) %5)
  %.sroa.06.0 = load ptr, ptr %.sroa.06.011, align 8
  %.not = icmp eq ptr %.sroa.06.0, null
  br i1 %.not, label %._crit_edge, label %.lr.ph

._crit_edge:                                      ; preds = %.lr.ph, %2
  ret void
}